target datalayout = "e-m:e-p270:32:32-p271:32:32-p272:64:64-i64:64-i128:128-f80:128-n8:16:32:64-S128"
target triple = "x86_64-pc-linux-gnu"

%struct._snmp_usm_params_t = type { i32, i32, i32, i32, i32, i32, ptr, ptr, ptr, ptr, ptr, ptr, ptr, i32 }
%struct.nstime_t = type { i64, i32 }
%struct._packet_info = type { ptr, ptr, i32, i32, %struct.nstime_t, %struct.nstime_t, %struct.nstime_t, i32, ptr, ptr, ptr, ptr, %struct._address, %struct._address, %struct._address, %struct._address, %struct._address, %struct._address, i32, ptr, i32, %struct.anon, i32, i32, i32, i32, ptr, i32, ptr, ptr, i16, i16, i32, i32, i16, i32, i32, ptr, ptr, ptr, i8, i8, i16, i16, i16, i32, i16, i16, ptr, ptr, ptr, ptr, ptr, i32 }
%struct._address = type { i32, i32, ptr, ptr }
%struct.anon = type { i8, [3 x i8] }
%struct._snmp_ue_assoc_t = type { %struct._snmp_user_t, %struct.snmp_engine_id_t, i32, i32, ptr }
%struct._snmp_user_t = type { %struct._snmp_usm_key, i32, %struct._snmp_usm_key, %struct._snmp_usm_key, ptr, %struct._snmp_usm_key, %struct._snmp_usm_key }
%struct._snmp_usm_key = type { ptr, i32 }
%struct.snmp_engine_id_t = type { ptr, i32 }

@.str.421 = private unnamed_addr constant [26 x i8] c"Not enough data remaining\00", align 1
@.str.483 = private unnamed_addr constant [50 x i8] c"decryptionError: msgPrivacyParameters length != 8\00", align 1

; Function Attrs: nounwind uwtable
define internal ptr @snmp_usm_priv_aes_common(ptr noundef %0, ptr noundef %1, ptr noundef %2, ptr noundef %3, i32 noundef %4) #0 {
  %6 = alloca ptr, align 8
  %7 = alloca ptr, align 8
  %8 = alloca ptr, align 8
  %9 = alloca ptr, align 8
  %10 = alloca ptr, align 8
  %11 = alloca i32, align 4
  %12 = alloca i32, align 4
  %13 = alloca ptr, align 8
  %14 = alloca ptr, align 8
  %15 = alloca ptr, align 8
  %16 = alloca i32, align 4
  %17 = alloca [16 x i8], align 16
  %18 = alloca i32, align 4
  %19 = alloca i32, align 4
  %20 = alloca ptr, align 8
  %21 = alloca ptr, align 8
  store ptr %0, ptr %7, align 8
  store ptr %1, ptr %8, align 8
  store ptr %2, ptr %9, align 8
  store ptr %3, ptr %10, align 8
  store i32 %4, ptr %11, align 4
  store ptr null, ptr %13, align 8
  %22 = load ptr, ptr %7, align 8
  %23 = getelementptr inbounds %struct._snmp_usm_params_t, ptr %22, i32 0, i32 12
  %24 = load ptr, ptr %23, align 8
  %25 = getelementptr inbounds %struct._snmp_ue_assoc_t, ptr %24, i32 0, i32 0
  %26 = getelementptr inbounds %struct._snmp_user_t, ptr %25, i32 0, i32 6
  %27 = getelementptr inbounds %struct._snmp_usm_key, ptr %26, i32 0, i32 0
  %28 = load ptr, ptr %27, align 8
  store ptr %28, ptr %15, align 8
  %29 = load ptr, ptr %7, align 8
  %30 = getelementptr inbounds %struct._snmp_usm_params_t, ptr %29, i32 0, i32 12
  %31 = load ptr, ptr %30, align 8
  %32 = getelementptr inbounds %struct._snmp_ue_assoc_t, ptr %31, i32 0, i32 0
  %33 = getelementptr inbounds %struct._snmp_user_t, ptr %32, i32 0, i32 6
  %34 = getelementptr inbounds %struct._snmp_usm_key, ptr %33, i32 0, i32 1
  %35 = load i32, ptr %34, align 8
  store i32 %35, ptr %16, align 4
  %36 = load ptr, ptr %7, align 8
  %37 = getelementptr inbounds %struct._snmp_usm_params_t, ptr %36, i32 0, i32 10
  %38 = load ptr, ptr %37, align 8
  %39 = call i32 @tvb_captured_length(ptr noundef %38)
  store i32 %39, ptr %18, align 4
  %40 = load i32, ptr %18, align 4
  %41 = icmp ne i32 %40, 8
  br i1 %41, label %42, label %44

42:                                               ; preds = %5
  %43 = load ptr, ptr %10, align 8
  store ptr @.str.483, ptr %43, align 8
  store ptr null, ptr %6, align 8
  br label %172

44:                                               ; preds = %5
  %45 = load ptr, ptr %7, align 8
  %46 = getelementptr inbounds %struct._snmp_usm_params_t, ptr %45, i32 0, i32 4
  %47 = load i32, ptr %46, align 8
  %48 = and i32 %47, -16777216
  %49 = lshr i32 %48, 24
  %50 = trunc i32 %49 to i8
  %51 = getelementptr [16 x i8], ptr %17, i64 0, i64 0
  store i8 %50, ptr %51, align 16
  %52 = load ptr, ptr %7, align 8
  %53 = getelementptr inbounds %struct._snmp_usm_params_t, ptr %52, i32 0, i32 4
  %54 = load i32, ptr %53, align 8
  %55 = and i32 %54, 16711680
  %56 = lshr i32 %55, 16
  %57 = trunc i32 %56 to i8
  %58 = getelementptr [16 x i8], ptr %17, i64 0, i64 1
  store i8 %57, ptr %58, align 1
  %59 = load ptr, ptr %7, align 8
  %60 = getelementptr inbounds %struct._snmp_usm_params_t, ptr %59, i32 0, i32 4
  %61 = load i32, ptr %60, align 8
  %62 = and i32 %61, 65280
  %63 = lshr i32 %62, 8
  %64 = trunc i32 %63 to i8
  %65 = getelementptr [16 x i8], ptr %17, i64 0, i64 2
  store i8 %64, ptr %65, align 2
  %66 = load ptr, ptr %7, align 8
  %67 = getelementptr inbounds %struct._snmp_usm_params_t, ptr %66, i32 0, i32 4
  %68 = load i32, ptr %67, align 8
  %69 = and i32 %68, 255
  %70 = trunc i32 %69 to i8
  %71 = getelementptr [16 x i8], ptr %17, i64 0, i64 3
  store i8 %70, ptr %71, align 1
  %72 = load ptr, ptr %7, align 8
  %73 = getelementptr inbounds %struct._snmp_usm_params_t, ptr %72, i32 0, i32 5
  %74 = load i32, ptr %73, align 4
  %75 = and i32 %74, -16777216
  %76 = lshr i32 %75, 24
  %77 = trunc i32 %76 to i8
  %78 = getelementptr [16 x i8], ptr %17, i64 0, i64 4
  store i8 %77, ptr %78, align 4
  %79 = load ptr, ptr %7, align 8
  %80 = getelementptr inbounds %struct._snmp_usm_params_t, ptr %79, i32 0, i32 5
  %81 = load i32, ptr %80, align 4
  %82 = and i32 %81, 16711680
  %83 = lshr i32 %82, 16
  %84 = trunc i32 %83 to i8
  %85 = getelementptr [16 x i8], ptr %17, i64 0, i64 5
  store i8 %84, ptr %85, align 1
  %86 = load ptr, ptr %7, align 8
  %87 = getelementptr inbounds %struct._snmp_usm_params_t, ptr %86, i32 0, i32 5
  %88 = load i32, ptr %87, align 4
  %89 = and i32 %88, 65280
  %90 = lshr i32 %89, 8
  %91 = trunc i32 %90 to i8
  %92 = getelementptr [16 x i8], ptr %17, i64 0, i64 6
  store i8 %91, ptr %92, align 2
  %93 = load ptr, ptr %7, align 8
  %94 = getelementptr inbounds %struct._snmp_usm_params_t, ptr %93, i32 0, i32 5
  %95 = load i32, ptr %94, align 4
  %96 = and i32 %95, 255
  %97 = trunc i32 %96 to i8
  %98 = getelementptr [16 x i8], ptr %17, i64 0, i64 7
  store i8 %97, ptr %98, align 1
  %99 = load ptr, ptr %7, align 8
  %100 = getelementptr inbounds %struct._snmp_usm_params_t, ptr %99, i32 0, i32 10
  %101 = load ptr, ptr %100, align 8
  %102 = getelementptr [16 x i8], ptr %17, i64 0, i64 8
  %103 = call ptr @tvb_memcpy(ptr noundef %101, ptr noundef %102, i32 noundef 0, i64 noundef 8)
  %104 = load ptr, ptr %8, align 8
  %105 = call i32 @tvb_captured_length(ptr noundef %104)
  store i32 %105, ptr %19, align 4
  %106 = load i32, ptr %19, align 4
  %107 = icmp sle i32 %106, 0
  br i1 %107, label %108, label %110

108:                                              ; preds = %44
  %109 = load ptr, ptr %10, align 8
  store ptr @.str.421, ptr %109, align 8
  store ptr null, ptr %6, align 8
  br label %172

110:                                              ; preds = %44
  %111 = load ptr, ptr %9, align 8
  %112 = getelementptr inbounds %struct._packet_info, ptr %111, i32 0, i32 50
  %113 = load ptr, ptr %112, align 8
  %114 = load ptr, ptr %8, align 8
  %115 = call ptr @tvb_memdup(ptr noundef %113, ptr noundef %114, i32 noundef 0, i64 noundef -1)
  store ptr %115, ptr %20, align 8
  %116 = load ptr, ptr %9, align 8
  %117 = getelementptr inbounds %struct._packet_info, ptr %116, i32 0, i32 50
  %118 = load ptr, ptr %117, align 8
  %119 = load i32, ptr %19, align 4
  %120 = sext i32 %119 to i64
  %121 = call noalias ptr @wmem_alloc(ptr noundef %118, i64 noundef %120)
  store ptr %121, ptr %14, align 8
  %122 = load i32, ptr %11, align 4
  %123 = call i32 @gcry_cipher_open(ptr noundef %13, i32 noundef %122, i32 noundef 2, i32 noundef 0)
  store i32 %123, ptr %12, align 4
  %124 = load i32, ptr %12, align 4
  %125 = icmp ne i32 %124, 0
  br i1 %125, label %126, label %127

126:                                              ; preds = %110
  br label %163

127:                                              ; preds = %110
  %128 = load ptr, ptr %13, align 8
  %129 = getelementptr inbounds [16 x i8], ptr %17, i64 0, i64 0
  %130 = call i32 @gcry_cipher_setiv(ptr noundef %128, ptr noundef %129, i64 noundef 16)
  store i32 %130, ptr %12, align 4
  %131 = load i32, ptr %12, align 4
  %132 = icmp ne i32 %131, 0
  br i1 %132, label %133, label %134

133:                                              ; preds = %127
  br label %163

134:                                              ; preds = %127
  %135 = load ptr, ptr %13, align 8
  %136 = load ptr, ptr %15, align 8
  %137 = load i32, ptr %16, align 4
  %138 = sext i32 %137 to i64
  %139 = call i32 @gcry_cipher_setkey(ptr noundef %135, ptr noundef %136, i64 noundef %138)
  store i32 %139, ptr %12, align 4
  %140 = load i32, ptr %12, align 4
  %141 = icmp ne i32 %140, 0
  br i1 %141, label %142, label %143

142:                                              ; preds = %134
  br label %163

143:                                              ; preds = %134
  %144 = load ptr, ptr %13, align 8
  %145 = load ptr, ptr %14, align 8
  %146 = load i32, ptr %19, align 4
  %147 = sext i32 %146 to i64
  %148 = load ptr, ptr %20, align 8
  %149 = load i32, ptr %19, align 4
  %150 = sext i32 %149 to i64
  %151 = call i32 @gcry_cipher_decrypt(ptr noundef %144, ptr noundef %145, i64 noundef %147, ptr noundef %148, i64 noundef %150)
  store i32 %151, ptr %12, align 4
  %152 = load i32, ptr %12, align 4
  %153 = icmp ne i32 %152, 0
  br i1 %153, label %154, label %155

154:                                              ; preds = %143
  br label %163

155:                                              ; preds = %143
  %156 = load ptr, ptr %13, align 8
  call void @gcry_cipher_close(ptr noundef %156)
  %157 = load ptr, ptr %8, align 8
  %158 = load ptr, ptr %14, align 8
  %159 = load i32, ptr %19, align 4
  %160 = load i32, ptr %19, align 4
  %161 = call ptr @tvb_new_child_real_data(ptr noundef %157, ptr noundef %158, i32 noundef %159, i32 noundef %160)
  store ptr %161, ptr %21, align 8
  %162 = load ptr, ptr %21, align 8
  store ptr %162, ptr %6, align 8
  br label %172

163:                                              ; preds = %154, %142, %133, %126
  %164 = load i32, ptr %12, align 4
  %165 = call ptr @gcry_strerror(i32 noundef %164)
  %166 = load ptr, ptr %10, align 8
  store ptr %165, ptr %166, align 8
  %167 = load ptr, ptr %13, align 8
  %168 = icmp ne ptr %167, null
  br i1 %168, label %169, label %171

169:                                              ; preds = %163
  %170 = load ptr, ptr %13, align 8
  call void @gcry_cipher_close(ptr noundef %170)
  br label %171

171:                                              ; preds = %169, %163
  store ptr null, ptr %6, align 8
  br label %172

172:                                              ; preds = %171, %155, %108, %42
  %173 = load ptr, ptr %6, align 8
  ret ptr %173
}