; Function Attrs: nounwind uwtable
define internal fastcc ptr @snmp_usm_priv_aes_common(ptr noundef readonly captures(none) %0, ptr noundef %1, ptr noundef readonly captures(none) %2, ptr noundef writeonly captures(none) %3, i32 noundef range(i32 7, 10) %4) unnamed_addr #0 {
  %6 = alloca ptr, align 8
  %7 = alloca [16 x i8], align 16
  store ptr null, ptr %6, align 8
  %8 = getelementptr inbounds nuw i8, ptr %0, i64 72
  %9 = load ptr, ptr %8, align 8
  %10 = getelementptr inbounds nuw i8, ptr %9, i64 80
  %11 = load ptr, ptr %10, align 8
  %12 = getelementptr inbounds nuw i8, ptr %9, i64 88
  %13 = load i32, ptr %12, align 8
  %14 = getelementptr inbounds nuw i8, ptr %0, i64 56
  %15 = load ptr, ptr %14, align 8
  %16 = tail call i32 @tvb_captured_length(ptr noundef %15) #11
  %.not = icmp eq i32 %16, 8
  br i1 %.not, label %18, label %17

17:                                               ; preds = %5
  store ptr @.str.483, ptr %3, align 8
  br label %75

18:                                               ; preds = %5
  %19 = getelementptr inbounds nuw i8, ptr %0, i64 16
  %20 = load i32, ptr %19, align 8
  %21 = lshr i32 %20, 24
  %22 = trunc nuw i32 %21 to i8
  store i8 %22, ptr %7, align 16
  %23 = lshr i32 %20, 16
  %24 = trunc i32 %23 to i8
  %25 = getelementptr inbounds nuw i8, ptr %7, i64 1
  store i8 %24, ptr %25, align 1
  %26 = lshr i32 %20, 8
  %27 = trunc i32 %26 to i8
  %28 = getelementptr inbounds nuw i8, ptr %7, i64 2
  store i8 %27, ptr %28, align 2
  %29 = trunc i32 %20 to i8
  %30 = getelementptr inbounds nuw i8, ptr %7, i64 3
  store i8 %29, ptr %30, align 1
  %31 = getelementptr inbounds nuw i8, ptr %0, i64 20
  %32 = load i32, ptr %31, align 4
  %33 = lshr i32 %32, 24
  %34 = trunc nuw i32 %33 to i8
  %35 = getelementptr inbounds nuw i8, ptr %7, i64 4
  store i8 %34, ptr %35, align 4
  %36 = lshr i32 %32, 16
  %37 = trunc i32 %36 to i8
  %38 = getelementptr inbounds nuw i8, ptr %7, i64 5
  store i8 %37, ptr %38, align 1
  %39 = lshr i32 %32, 8
  %40 = trunc i32 %39 to i8
  %41 = getelementptr inbounds nuw i8, ptr %7, i64 6
  store i8 %40, ptr %41, align 2
  %42 = trunc i32 %32 to i8
  %43 = getelementptr inbounds nuw i8, ptr %7, i64 7
  store i8 %42, ptr %43, align 1
  %44 = load ptr, ptr %14, align 8
  %45 = getelementptr inbounds nuw i8, ptr %7, i64 8
  %46 = call ptr @tvb_memcpy(ptr noundef %44, ptr noundef nonnull %45, i32 noundef 0, i64 noundef 8) #11
  %47 = call i32 @tvb_captured_length(ptr noundef %1) #11
  %48 = icmp slt i32 %47, 1
  br i1 %48, label %49, label %50

49:                                               ; preds = %18
  store ptr @.str.421, ptr %3, align 8
  br label %75

50:                                               ; preds = %18
  %51 = getelementptr inbounds nuw i8, ptr %2, i64 408
  %52 = load ptr, ptr %51, align 8
  %53 = call ptr @tvb_memdup(ptr noundef %52, ptr noundef %1, i32 noundef 0, i64 noundef -1) #11
  %54 = load ptr, ptr %51, align 8
  %55 = zext nneg i32 %47 to i64
  %56 = call noalias ptr @wmem_alloc(ptr noundef %54, i64 noundef %55) #11
  %57 = call i32 @gcry_cipher_open(ptr noundef nonnull %6, i32 noundef %4, i32 noundef 2, i32 noundef 0) #11
  %.not46 = icmp eq i32 %57, 0
  br i1 %.not46, label %58, label %71

58:                                               ; preds = %50
  %59 = load ptr, ptr %6, align 8
  %60 = call i32 @gcry_cipher_setiv(ptr noundef %59, ptr noundef nonnull %7, i64 noundef 16) #11
  %.not47 = icmp eq i32 %60, 0
  br i1 %.not47, label %61, label %71

61:                                               ; preds = %58
  %62 = load ptr, ptr %6, align 8
  %63 = sext i32 %13 to i64
  %64 = call i32 @gcry_cipher_setkey(ptr noundef %62, ptr noundef %11, i64 noundef %63) #11
  %.not48 = icmp eq i32 %64, 0
  br i1 %.not48, label %65, label %71

65:                                               ; preds = %61
  %66 = load ptr, ptr %6, align 8
  %67 = call i32 @gcry_cipher_decrypt(ptr noundef %66, ptr noundef %56, i64 noundef %55, ptr noundef %53, i64 noundef %55) #11
  %.not49 = icmp eq i32 %67, 0
  br i1 %.not49, label %68, label %71

68:                                               ; preds = %65
  %69 = load ptr, ptr %6, align 8
  call void @gcry_cipher_close(ptr noundef %69) #11
  %70 = call ptr @tvb_new_child_real_data(ptr noundef %1, ptr noundef %56, i32 noundef %47, i32 noundef %47) #11
  br label %75

71:                                               ; preds = %65, %61, %58, %50
  %.039 = phi i32 [ %57, %50 ], [ %60, %58 ], [ %64, %61 ], [ %67, %65 ]
  %72 = call ptr @gcry_strerror(i32 noundef %.039) #11
  store ptr %72, ptr %3, align 8
  %73 = load ptr, ptr %6, align 8
  %.not50 = icmp eq ptr %73, null
  br i1 %.not50, label %75, label %74

74:                                               ; preds = %71
  call void @gcry_cipher_close(ptr noundef nonnull %73) #11
  br label %75

75:                                               ; preds = %71, %74, %68, %49, %17
  %.0 = phi ptr [ null, %17 ], [ null, %49 ], [ %70, %68 ], [ null, %74 ], [ null, %71 ]
  ret ptr %.0
}